; Function Attrs: mustprogress nofree nounwind willreturn memory(write, inaccessiblemem: readwrite) uwtable
define void @Hop_ManStartMemory(ptr noundef writeonly captures(none) initializes((144, 160)) %0) local_unnamed_addr #0 {
  %2 = tail call noalias dereferenceable_or_null(16) ptr @malloc(i64 noundef 16) #5
  %3 = getelementptr inbounds nuw i8, ptr %2, i64 4
  store i32 0, ptr %3, align 4, !tbaa !3
  store i32 128, ptr %2, align 8, !tbaa !9
  %4 = tail call noalias dereferenceable_or_null(1024) ptr @malloc(i64 noundef 1024) #5
  %5 = getelementptr inbounds nuw i8, ptr %2, i64 8
  store ptr %4, ptr %5, align 8, !tbaa !10
  %6 = getelementptr inbounds nuw i8, ptr %0, i64 144
  store ptr %2, ptr %6, align 8, !tbaa !11
  %7 = tail call noalias dereferenceable_or_null(16) ptr @malloc(i64 noundef 16) #5
  %8 = getelementptr inbounds nuw i8, ptr %7, i64 4
  store i32 0, ptr %8, align 4, !tbaa !3
  store i32 128, ptr %7, align 8, !tbaa !9
  %9 = tail call noalias dereferenceable_or_null(1024) ptr @malloc(i64 noundef 1024) #5
  %10 = getelementptr inbounds nuw i8, ptr %7, i64 8
  store ptr %9, ptr %10, align 8, !tbaa !10
  %11 = getelementptr inbounds nuw i8, ptr %0, i64 152
  store ptr %7, ptr %11, align 8, !tbaa !18
  ret void
}